target datalayout = "e-m:e-p270:32:32-p271:32:32-p272:64:64-i64:64-i128:128-f80:128-n8:16:32:64-S128"
target triple = "x86_64-pc-linux-gnu"

%struct._address_type_t = type { i32, ptr, ptr, ptr, ptr, ptr, ptr, ptr, ptr, ptr }

@num_dissector_addr_type = internal global i32 0, align 4
@dissector_type_addresses = internal global [30 x %struct._address_type_t] zeroinitializer, align 16
@type_list = internal global [45 x ptr] zeroinitializer, align 16

; Function Attrs: nounwind null_pointer_is_valid sspstrong uwtable
define i32 @address_type_dissector_register(ptr noundef %0, ptr noundef %1, ptr noundef %2, ptr noundef %3, ptr noundef %4, ptr noundef %5, ptr noundef %6, ptr noundef %7, ptr noundef %8) #0 {
  %10 = alloca ptr, align 8
  %11 = alloca ptr, align 8
  %12 = alloca ptr, align 8
  %13 = alloca ptr, align 8
  %14 = alloca ptr, align 8
  %15 = alloca ptr, align 8
  %16 = alloca ptr, align 8
  %17 = alloca ptr, align 8
  %18 = alloca ptr, align 8
  %19 = alloca i32, align 4
  store ptr %0, ptr %10, align 8
  store ptr %1, ptr %11, align 8
  store ptr %2, ptr %12, align 8
  store ptr %3, ptr %13, align 8
  store ptr %4, ptr %14, align 8
  store ptr %5, ptr %15, align 8
  store ptr %6, ptr %16, align 8
  store ptr %7, ptr %17, align 8
  store ptr %8, ptr %18, align 8
  call void @llvm.lifetime.start.p0(i64 4, ptr %19) #12
  br label %20

20:                                               ; preds = %9
  br label %21

21:                                               ; preds = %20
  br label %22

22:                                               ; preds = %21
  br label %23

23:                                               ; preds = %22
  br label %24

24:                                               ; preds = %23
  br label %25

25:                                               ; preds = %24
  br label %26

26:                                               ; preds = %25
  br label %27

27:                                               ; preds = %26
  br label %28

28:                                               ; preds = %27
  br label %29

29:                                               ; preds = %28
  br label %30

30:                                               ; preds = %29
  br label %31

31:                                               ; preds = %30
  br label %32

32:                                               ; preds = %31
  br label %33

33:                                               ; preds = %32
  br label %34

34:                                               ; preds = %33
  br label %35

35:                                               ; preds = %34
  br label %36

36:                                               ; preds = %35
  br label %37

37:                                               ; preds = %36
  %38 = load i32, ptr @num_dissector_addr_type, align 4
  %39 = add i32 14, %38
  store i32 %39, ptr %19, align 4
  %40 = load i32, ptr %19, align 4
  %41 = load i32, ptr @num_dissector_addr_type, align 4
  %42 = sext i32 %41 to i64
  %43 = getelementptr [30 x %struct._address_type_t], ptr @dissector_type_addresses, i64 0, i64 %42
  %44 = getelementptr inbounds nuw %struct._address_type_t, ptr %43, i32 0, i32 0
  store i32 %40, ptr %44, align 16
  %45 = load ptr, ptr %10, align 8
  %46 = load i32, ptr @num_dissector_addr_type, align 4
  %47 = sext i32 %46 to i64
  %48 = getelementptr [30 x %struct._address_type_t], ptr @dissector_type_addresses, i64 0, i64 %47
  %49 = getelementptr inbounds nuw %struct._address_type_t, ptr %48, i32 0, i32 1
  store ptr %45, ptr %49, align 8
  %50 = load ptr, ptr %11, align 8
  %51 = load i32, ptr @num_dissector_addr_type, align 4
  %52 = sext i32 %51 to i64
  %53 = getelementptr [30 x %struct._address_type_t], ptr @dissector_type_addresses, i64 0, i64 %52
  %54 = getelementptr inbounds nuw %struct._address_type_t, ptr %53, i32 0, i32 2
  store ptr %50, ptr %54, align 16
  %55 = load ptr, ptr %12, align 8
  %56 = load i32, ptr @num_dissector_addr_type, align 4
  %57 = sext i32 %56 to i64
  %58 = getelementptr [30 x %struct._address_type_t], ptr @dissector_type_addresses, i64 0, i64 %57
  %59 = getelementptr inbounds nuw %struct._address_type_t, ptr %58, i32 0, i32 3
  store ptr %55, ptr %59, align 8
  %60 = load ptr, ptr %13, align 8
  %61 = load i32, ptr @num_dissector_addr_type, align 4
  %62 = sext i32 %61 to i64
  %63 = getelementptr [30 x %struct._address_type_t], ptr @dissector_type_addresses, i64 0, i64 %62
  %64 = getelementptr inbounds nuw %struct._address_type_t, ptr %63, i32 0, i32 4
  store ptr %60, ptr %64, align 16
  %65 = load ptr, ptr %14, align 8
  %66 = load i32, ptr @num_dissector_addr_type, align 4
  %67 = sext i32 %66 to i64
  %68 = getelementptr [30 x %struct._address_type_t], ptr @dissector_type_addresses, i64 0, i64 %67
  %69 = getelementptr inbounds nuw %struct._address_type_t, ptr %68, i32 0, i32 5
  store ptr %65, ptr %69, align 8
  %70 = load ptr, ptr %15, align 8
  %71 = load i32, ptr @num_dissector_addr_type, align 4
  %72 = sext i32 %71 to i64
  %73 = getelementptr [30 x %struct._address_type_t], ptr @dissector_type_addresses, i64 0, i64 %72
  %74 = getelementptr inbounds nuw %struct._address_type_t, ptr %73, i32 0, i32 6
  store ptr %70, ptr %74, align 16
  %75 = load ptr, ptr %16, align 8
  %76 = load i32, ptr @num_dissector_addr_type, align 4
  %77 = sext i32 %76 to i64
  %78 = getelementptr [30 x %struct._address_type_t], ptr @dissector_type_addresses, i64 0, i64 %77
  %79 = getelementptr inbounds nuw %struct._address_type_t, ptr %78, i32 0, i32 7
  store ptr %75, ptr %79, align 8
  %80 = load ptr, ptr %17, align 8
  %81 = load i32, ptr @num_dissector_addr_type, align 4
  %82 = sext i32 %81 to i64
  %83 = getelementptr [30 x %struct._address_type_t], ptr @dissector_type_addresses, i64 0, i64 %82
  %84 = getelementptr inbounds nuw %struct._address_type_t, ptr %83, i32 0, i32 8
  store ptr %80, ptr %84, align 16
  %85 = load ptr, ptr %18, align 8
  %86 = load i32, ptr @num_dissector_addr_type, align 4
  %87 = sext i32 %86 to i64
  %88 = getelementptr [30 x %struct._address_type_t], ptr @dissector_type_addresses, i64 0, i64 %87
  %89 = getelementptr inbounds nuw %struct._address_type_t, ptr %88, i32 0, i32 9
  store ptr %85, ptr %89, align 8
  %90 = load i32, ptr @num_dissector_addr_type, align 4
  %91 = sext i32 %90 to i64
  %92 = getelementptr [30 x %struct._address_type_t], ptr @dissector_type_addresses, i64 0, i64 %91
  %93 = load i32, ptr %19, align 4
  %94 = sext i32 %93 to i64
  %95 = getelementptr [45 x ptr], ptr @type_list, i64 0, i64 %94
  store ptr %92, ptr %95, align 8
  %96 = load i32, ptr @num_dissector_addr_type, align 4
  %97 = add i32 %96, 1
  store i32 %97, ptr @num_dissector_addr_type, align 4
  %98 = load i32, ptr %19, align 4
  call void @llvm.lifetime.end.p0(i64 4, ptr %19) #12
  ret i32 %98
}