; Function Attrs: mustprogress nofree norecurse nosync nounwind null_pointer_is_valid sspstrong willreturn memory(readwrite, argmem: none, inaccessiblemem: none) uwtable
define i32 @address_type_dissector_register(ptr noundef %0, ptr noundef %1, ptr noundef %2, ptr noundef %3, ptr noundef %4, ptr noundef %5, ptr noundef %6, ptr noundef %7, ptr noundef %8) local_unnamed_addr #0 {
  %10 = load i32, ptr @num_dissector_addr_type, align 4
  %11 = add i32 %10, 14
  %12 = sext i32 %10 to i64
  %13 = getelementptr [30 x %struct._address_type_t], ptr @dissector_type_addresses, i64 0, i64 %12
  store i32 %11, ptr %13, align 16
  %14 = getelementptr [30 x %struct._address_type_t], ptr @dissector_type_addresses, i64 0, i64 %12, i32 1
  store ptr %0, ptr %14, align 8
  %15 = getelementptr [30 x %struct._address_type_t], ptr @dissector_type_addresses, i64 0, i64 %12, i32 2
  store ptr %1, ptr %15, align 16
  %16 = getelementptr [30 x %struct._address_type_t], ptr @dissector_type_addresses, i64 0, i64 %12, i32 3
  store ptr %2, ptr %16, align 8
  %17 = getelementptr [30 x %struct._address_type_t], ptr @dissector_type_addresses, i64 0, i64 %12, i32 4
  store ptr %3, ptr %17, align 16
  %18 = getelementptr [30 x %struct._address_type_t], ptr @dissector_type_addresses, i64 0, i64 %12, i32 5
  store ptr %4, ptr %18, align 8
  %19 = getelementptr [30 x %struct._address_type_t], ptr @dissector_type_addresses, i64 0, i64 %12, i32 6
  store ptr %5, ptr %19, align 16
  %20 = getelementptr [30 x %struct._address_type_t], ptr @dissector_type_addresses, i64 0, i64 %12, i32 7
  store ptr %6, ptr %20, align 8
  %21 = getelementptr [30 x %struct._address_type_t], ptr @dissector_type_addresses, i64 0, i64 %12, i32 8
  store ptr %7, ptr %21, align 16
  %22 = getelementptr [30 x %struct._address_type_t], ptr @dissector_type_addresses, i64 0, i64 %12, i32 9
  store ptr %8, ptr %22, align 8
  %23 = sext i32 %11 to i64
  %24 = getelementptr [45 x ptr], ptr @type_list, i64 0, i64 %23
  store ptr %13, ptr %24, align 8
  %25 = add i32 %10, 1
  store i32 %25, ptr @num_dissector_addr_type, align 4
  ret i32 %11
}